target datalayout = "e-m:e-p270:32:32-p271:32:32-p272:64:64-i64:64-i128:128-f80:128-n8:16:32:64-S128"
target triple = "x86_64-pc-linux-gnu"

%struct.RelOptInfo = type { i32, i32, ptr, double, i8, i8, i8, ptr, ptr, ptr, ptr, ptr, ptr, ptr, ptr, ptr, ptr, i32, i32, i32, i16, i16, ptr, ptr, ptr, ptr, ptr, ptr, ptr, ptr, i32, double, double, ptr, ptr, ptr, i32, i32, i32, i32, i8, ptr, ptr, ptr, ptr, ptr, %struct.QualCost, i32, ptr, i8, i8, ptr, ptr, ptr, ptr, i32, ptr, i8, ptr, ptr, ptr, ptr, ptr, ptr }
%struct.QualCost = type { double, double }
%struct.List = type { i32, i32, i32, ptr, [0 x %union.ListCell] }
%union.ListCell = type { ptr }
%struct.IndexOptInfo = type { i32, i32, i32, ptr, i32, double, i32, i32, i32, ptr, ptr, ptr, ptr, ptr, ptr, ptr, ptr, ptr, i32, ptr, ptr, ptr, ptr, i8, i8, i8, i8, i8, i8, i8, i8, i8, i8, i8, i8, i8, ptr }
%struct.Expr = type { i32 }
%struct.Node = type { i32 }
%struct.RelabelType = type { %struct.Expr, ptr, i32, i32, i32, i32, i32 }
%struct.Var = type { %struct.Expr, i32, i16, i32, i32, i32, ptr, i32, i32, i32, i16, i32 }

@.str = private unnamed_addr constant [34 x i8] c"wrong number of index expressions\00", align 1
@.str.1 = private unnamed_addr constant [11 x i8] c"indxpath.c\00", align 1
@__func__.match_index_to_operand = private unnamed_addr constant [23 x i8] c"match_index_to_operand\00", align 1

; Function Attrs: inlinehint nounwind uwtable
define internal ptr @lnext(ptr noundef %0, ptr noundef %1) #4 {
  %3 = alloca ptr, align 8
  %4 = alloca ptr, align 8
  %5 = alloca ptr, align 8
  store ptr %0, ptr %4, align 8
  store ptr %1, ptr %5, align 8
  %6 = load ptr, ptr %5, align 8
  %7 = getelementptr inbounds nuw %union.ListCell, ptr %6, i32 1
  store ptr %7, ptr %5, align 8
  %8 = load ptr, ptr %5, align 8
  %9 = load ptr, ptr %4, align 8
  %10 = getelementptr inbounds nuw %struct.List, ptr %9, i32 0, i32 3
  %11 = load ptr, ptr %10, align 8
  %12 = load ptr, ptr %4, align 8
  %13 = getelementptr inbounds nuw %struct.List, ptr %12, i32 0, i32 1
  %14 = load i32, ptr %13, align 4
  %15 = sext i32 %14 to i64
  %16 = getelementptr inbounds %union.ListCell, ptr %11, i64 %15
  %17 = icmp ult ptr %8, %16
  br i1 %17, label %18, label %20

18:                                               ; preds = %2
  %19 = load ptr, ptr %5, align 8
  store ptr %19, ptr %3, align 8
  br label %21

20:                                               ; preds = %2
  store ptr null, ptr %3, align 8
  br label %21

21:                                               ; preds = %20, %18
  %22 = load ptr, ptr %3, align 8
  ret ptr %22
}

; Function Attrs: inlinehint nounwind uwtable
define internal ptr @list_head(ptr noundef %0) #4 {
  %2 = alloca ptr, align 8
  store ptr %0, ptr %2, align 8
  %3 = load ptr, ptr %2, align 8
  %4 = icmp ne ptr %3, null
  br i1 %4, label %5, label %10

5:                                                ; preds = %1
  %6 = load ptr, ptr %2, align 8
  %7 = getelementptr inbounds nuw %struct.List, ptr %6, i32 0, i32 3
  %8 = load ptr, ptr %7, align 8
  %9 = getelementptr inbounds %union.ListCell, ptr %8, i64 0
  br label %11

10:                                               ; preds = %1
  br label %11

11:                                               ; preds = %10, %5
  %12 = phi ptr [ %9, %5 ], [ null, %10 ]
  ret ptr %12
}

; Function Attrs: nounwind uwtable
define dso_local zeroext i1 @match_index_to_operand(ptr noundef %0, i32 noundef %1, ptr noundef %2) #0 {
  %4 = alloca i1, align 1
  %5 = alloca ptr, align 8
  %6 = alloca i32, align 4
  %7 = alloca ptr, align 8
  %8 = alloca i32, align 4
  %9 = alloca i32, align 4
  %10 = alloca ptr, align 8
  %11 = alloca i32, align 4
  %12 = alloca ptr, align 8
  store ptr %0, ptr %5, align 8
  store i32 %1, ptr %6, align 4
  store ptr %2, ptr %7, align 8
  call void @llvm.lifetime.start.p0(i64 4, ptr %8) #7
  %13 = load ptr, ptr %5, align 8
  %14 = icmp ne ptr %13, null
  br i1 %14, label %15, label %24

15:                                               ; preds = %3
  %16 = load ptr, ptr %5, align 8
  %17 = getelementptr inbounds nuw %struct.Node, ptr %16, i32 0, i32 0
  %18 = load i32, ptr %17, align 4
  %19 = icmp eq i32 %18, 27
  br i1 %19, label %20, label %24

20:                                               ; preds = %15
  %21 = load ptr, ptr %5, align 8
  %22 = getelementptr inbounds nuw %struct.RelabelType, ptr %21, i32 0, i32 1
  %23 = load ptr, ptr %22, align 8
  store ptr %23, ptr %5, align 8
  br label %24

24:                                               ; preds = %20, %15, %3
  %25 = load ptr, ptr %7, align 8
  %26 = getelementptr inbounds nuw %struct.IndexOptInfo, ptr %25, i32 0, i32 9
  %27 = load ptr, ptr %26, align 8
  %28 = load i32, ptr %6, align 4
  %29 = sext i32 %28 to i64
  %30 = getelementptr inbounds i32, ptr %27, i64 %29
  %31 = load i32, ptr %30, align 4
  store i32 %31, ptr %8, align 4
  %32 = load i32, ptr %8, align 4
  %33 = icmp ne i32 %32, 0
  br i1 %33, label %34, label %66

34:                                               ; preds = %24
  %35 = load ptr, ptr %5, align 8
  %36 = icmp ne ptr %35, null
  br i1 %36, label %37, label %65

37:                                               ; preds = %34
  %38 = load ptr, ptr %5, align 8
  %39 = getelementptr inbounds nuw %struct.Node, ptr %38, i32 0, i32 0
  %40 = load i32, ptr %39, align 4
  %41 = icmp eq i32 %40, 6
  br i1 %41, label %42, label %65

42:                                               ; preds = %37
  %43 = load ptr, ptr %7, align 8
  %44 = getelementptr inbounds nuw %struct.IndexOptInfo, ptr %43, i32 0, i32 3
  %45 = load ptr, ptr %44, align 8
  %46 = getelementptr inbounds nuw %struct.RelOptInfo, ptr %45, i32 0, i32 17
  %47 = load i32, ptr %46, align 8
  %48 = load ptr, ptr %5, align 8
  %49 = getelementptr inbounds nuw %struct.Var, ptr %48, i32 0, i32 1
  %50 = load i32, ptr %49, align 4
  %51 = icmp eq i32 %47, %50
  br i1 %51, label %52, label %65

52:                                               ; preds = %42
  %53 = load i32, ptr %8, align 4
  %54 = load ptr, ptr %5, align 8
  %55 = getelementptr inbounds nuw %struct.Var, ptr %54, i32 0, i32 2
  %56 = load i16, ptr %55, align 8
  %57 = sext i16 %56 to i32
  %58 = icmp eq i32 %53, %57
  br i1 %58, label %59, label %65

59:                                               ; preds = %52
  %60 = load ptr, ptr %5, align 8
  %61 = getelementptr inbounds nuw %struct.Var, ptr %60, i32 0, i32 6
  %62 = load ptr, ptr %61, align 8
  %63 = icmp eq ptr %62, null
  br i1 %63, label %64, label %65

64:                                               ; preds = %59
  store i1 true, ptr %4, align 1
  store i32 1, ptr %9, align 4
  br label %146

65:                                               ; preds = %59, %52, %42, %37, %34
  br label %145

66:                                               ; preds = %24
  call void @llvm.lifetime.start.p0(i64 8, ptr %10) #7
  call void @llvm.lifetime.start.p0(i64 4, ptr %11) #7
  call void @llvm.lifetime.start.p0(i64 8, ptr %12) #7
  %67 = load ptr, ptr %7, align 8
  %68 = getelementptr inbounds nuw %struct.IndexOptInfo, ptr %67, i32 0, i32 19
  %69 = load ptr, ptr %68, align 8
  %70 = call ptr @list_head(ptr noundef %69)
  store ptr %70, ptr %10, align 8
  store i32 0, ptr %11, align 4
  br label %71

71:                                               ; preds = %105, %66
  %72 = load i32, ptr %11, align 4
  %73 = load i32, ptr %6, align 4
  %74 = icmp slt i32 %72, %73
  br i1 %74, label %75, label %108

75:                                               ; preds = %71
  %76 = load ptr, ptr %7, align 8
  %77 = getelementptr inbounds nuw %struct.IndexOptInfo, ptr %76, i32 0, i32 9
  %78 = load ptr, ptr %77, align 8
  %79 = load i32, ptr %11, align 4
  %80 = sext i32 %79 to i64
  %81 = getelementptr inbounds i32, ptr %78, i64 %80
  %82 = load i32, ptr %81, align 4
  %83 = icmp eq i32 %82, 0
  br i1 %83, label %84, label %104

84:                                               ; preds = %75
  %85 = load ptr, ptr %10, align 8
  %86 = icmp eq ptr %85, null
  br i1 %86, label %87, label %98

87:                                               ; preds = %84
  br label %88

88:                                               ; preds = %87
  br i1 true, label %89, label %91

89:                                               ; preds = %88
  %90 = call zeroext i1 @errstart_cold(i32 noundef 21, ptr noundef null) #8
  br i1 %90, label %93, label %95

91:                                               ; preds = %88
  %92 = call zeroext i1 @errstart(i32 noundef 21, ptr noundef null)
  br i1 %92, label %93, label %95

93:                                               ; preds = %91, %89
  %94 = call i32 (ptr, ...) @errmsg_internal(ptr noundef @.str)
  call void @errfinish(ptr noundef @.str.1, i32 noundef 4470, ptr noundef @__func__.match_index_to_operand)
  br label %95

95:                                               ; preds = %93, %91, %89
  unreachable

96:                                               ; No predecessors!
  br label %97

97:                                               ; preds = %96
  br label %98

98:                                               ; preds = %97, %84
  %99 = load ptr, ptr %7, align 8
  %100 = getelementptr inbounds nuw %struct.IndexOptInfo, ptr %99, i32 0, i32 19
  %101 = load ptr, ptr %100, align 8
  %102 = load ptr, ptr %10, align 8
  %103 = call ptr @lnext(ptr noundef %101, ptr noundef %102)
  store ptr %103, ptr %10, align 8
  br label %104

104:                                              ; preds = %98, %75
  br label %105

105:                                              ; preds = %104
  %106 = load i32, ptr %11, align 4
  %107 = add i32 %106, 1
  store i32 %107, ptr %11, align 4
  br label %71, !llvm.loop !35

108:                                              ; preds = %71
  %109 = load ptr, ptr %10, align 8
  %110 = icmp eq ptr %109, null
  br i1 %110, label %111, label %122

111:                                              ; preds = %108
  br label %112

112:                                              ; preds = %111
  br i1 true, label %113, label %115

113:                                              ; preds = %112
  %114 = call zeroext i1 @errstart_cold(i32 noundef 21, ptr noundef null) #8
  br i1 %114, label %117, label %119

115:                                              ; preds = %112
  %116 = call zeroext i1 @errstart(i32 noundef 21, ptr noundef null)
  br i1 %116, label %117, label %119

117:                                              ; preds = %115, %113
  %118 = call i32 (ptr, ...) @errmsg_internal(ptr noundef @.str)
  call void @errfinish(ptr noundef @.str.1, i32 noundef 4475, ptr noundef @__func__.match_index_to_operand)
  br label %119

119:                                              ; preds = %117, %115, %113
  unreachable

120:                                              ; No predecessors!
  br label %121

121:                                              ; preds = %120
  br label %122

122:                                              ; preds = %121, %108
  %123 = load ptr, ptr %10, align 8
  %124 = load ptr, ptr %123, align 8
  store ptr %124, ptr %12, align 8
  %125 = load ptr, ptr %12, align 8
  %126 = icmp ne ptr %125, null
  br i1 %126, label %127, label %136

127:                                              ; preds = %122
  %128 = load ptr, ptr %12, align 8
  %129 = getelementptr inbounds nuw %struct.Node, ptr %128, i32 0, i32 0
  %130 = load i32, ptr %129, align 4
  %131 = icmp eq i32 %130, 27
  br i1 %131, label %132, label %136

132:                                              ; preds = %127
  %133 = load ptr, ptr %12, align 8
  %134 = getelementptr inbounds nuw %struct.RelabelType, ptr %133, i32 0, i32 1
  %135 = load ptr, ptr %134, align 8
  store ptr %135, ptr %12, align 8
  br label %136

136:                                              ; preds = %132, %127, %122
  %137 = load ptr, ptr %12, align 8
  %138 = load ptr, ptr %5, align 8
  %139 = call zeroext i1 @equal(ptr noundef %137, ptr noundef %138)
  br i1 %139, label %140, label %141

140:                                              ; preds = %136
  store i1 true, ptr %4, align 1
  store i32 1, ptr %9, align 4
  br label %142

141:                                              ; preds = %136
  store i32 0, ptr %9, align 4
  br label %142

142:                                              ; preds = %141, %140
  call void @llvm.lifetime.end.p0(i64 8, ptr %12) #7
  call void @llvm.lifetime.end.p0(i64 4, ptr %11) #7
  call void @llvm.lifetime.end.p0(i64 8, ptr %10) #7
  %143 = load i32, ptr %9, align 4
  switch i32 %143, label %146 [
    i32 0, label %144
  ]

144:                                              ; preds = %142
  br label %145

145:                                              ; preds = %144, %65
  store i1 false, ptr %4, align 1
  store i32 1, ptr %9, align 4
  br label %146

146:                                              ; preds = %145, %142, %64
  call void @llvm.lifetime.end.p0(i64 4, ptr %8) #7
  %147 = load i1, ptr %4, align 1
  ret i1 %147
}