; Function Attrs: nounwind uwtable
define dso_local noundef zeroext i1 @match_index_to_operand(ptr noundef %0, i32 noundef %1, ptr noundef readonly captures(none) %2) local_unnamed_addr #0 {
  %.not = icmp eq ptr %0, null
  br i1 %.not, label %.thread, label %4

4:                                                ; preds = %3
  %5 = load i32, ptr %0, align 4
  %6 = icmp eq i32 %5, 27
  br i1 %6, label %7, label %10

7:                                                ; preds = %4
  %8 = getelementptr inbounds nuw i8, ptr %0, i64 8
  %9 = load ptr, ptr %8, align 8
  br label %10

10:                                               ; preds = %7, %4
  %.035 = phi ptr [ %9, %7 ], [ %0, %4 ]
  %11 = getelementptr inbounds nuw i8, ptr %2, i64 56
  %12 = load ptr, ptr %11, align 8
  %13 = sext i32 %1 to i64
  %14 = getelementptr inbounds i32, ptr %12, i64 %13
  %15 = load i32, ptr %14, align 4
  %.not41 = icmp eq i32 %15, 0
  br i1 %.not41, label %42, label %21

.thread:                                          ; preds = %3
  %16 = getelementptr inbounds nuw i8, ptr %2, i64 56
  %17 = load ptr, ptr %16, align 8
  %18 = sext i32 %1 to i64
  %19 = getelementptr inbounds i32, ptr %17, i64 %18
  %20 = load i32, ptr %19, align 4
  %.not4146 = icmp eq i32 %20, 0
  br i1 %.not4146, label %42, label %.thread49

21:                                               ; preds = %10
  %.not43 = icmp eq ptr %.035, null
  br i1 %.not43, label %.thread49, label %22

22:                                               ; preds = %21
  %23 = load i32, ptr %.035, align 4
  %24 = icmp eq i32 %23, 6
  br i1 %24, label %25, label %.thread49

25:                                               ; preds = %22
  %26 = getelementptr inbounds nuw i8, ptr %2, i64 16
  %27 = load ptr, ptr %26, align 8
  %28 = getelementptr inbounds nuw i8, ptr %27, i64 112
  %29 = load i32, ptr %28, align 8
  %30 = getelementptr inbounds nuw i8, ptr %.035, i64 4
  %31 = load i32, ptr %30, align 4
  %32 = icmp eq i32 %29, %31
  br i1 %32, label %33, label %.thread49

33:                                               ; preds = %25
  %34 = getelementptr inbounds nuw i8, ptr %.035, i64 8
  %35 = load i16, ptr %34, align 8
  %36 = sext i16 %35 to i32
  %37 = icmp eq i32 %15, %36
  br i1 %37, label %38, label %.thread49

38:                                               ; preds = %33
  %39 = getelementptr inbounds nuw i8, ptr %.035, i64 24
  %40 = load ptr, ptr %39, align 8
  %41 = icmp eq ptr %40, null
  br i1 %41, label %82, label %.thread49

42:                                               ; preds = %.thread, %10
  %43 = phi ptr [ %17, %.thread ], [ %12, %10 ]
  %.03548 = phi ptr [ null, %.thread ], [ %.035, %10 ]
  %44 = getelementptr inbounds nuw i8, ptr %2, i64 136
  %45 = load ptr, ptr %44, align 8
  %.not.i = icmp eq ptr %45, null
  br i1 %.not.i, label %list_head.exit, label %46

46:                                               ; preds = %42
  %47 = getelementptr inbounds nuw i8, ptr %45, i64 16
  %48 = load ptr, ptr %47, align 8
  br label %list_head.exit

list_head.exit:                                   ; preds = %42, %46
  %49 = phi ptr [ %48, %46 ], [ null, %42 ]
  %50 = icmp sgt i32 %1, 0
  br i1 %50, label %.lr.ph, label %._crit_edge

.lr.ph:                                           ; preds = %list_head.exit
  %51 = getelementptr i8, ptr %45, i64 4
  %52 = getelementptr i8, ptr %45, i64 16
  %wide.trip.count = zext nneg i32 %1 to i64
  br label %53

53:                                               ; preds = %.lr.ph, %67
  %indvars.iv = phi i64 [ 0, %.lr.ph ], [ %indvars.iv.next, %67 ]
  %.03153 = phi ptr [ %49, %.lr.ph ], [ %.1, %67 ]
  %54 = getelementptr inbounds nuw i32, ptr %43, i64 %indvars.iv
  %55 = load i32, ptr %54, align 4
  %56 = icmp eq i32 %55, 0
  br i1 %56, label %57, label %67

57:                                               ; preds = %53
  %58 = icmp eq ptr %.03153, null
  br i1 %58, label %59, label %62

59:                                               ; preds = %57
  %60 = tail call zeroext i1 @errstart_cold(i32 noundef 21, ptr noundef null) #9
  tail call void @llvm.assume(i1 %60)
  %61 = tail call i32 (ptr, ...) @errmsg_internal(ptr noundef nonnull @.str) #8
  tail call void @errfinish(ptr noundef nonnull @.str.1, i32 noundef 4470, ptr noundef nonnull @__func__.match_index_to_operand) #8
  unreachable

62:                                               ; preds = %57
  %.val = load i32, ptr %51, align 4
  %.val44 = load ptr, ptr %52, align 8
  %63 = getelementptr inbounds nuw i8, ptr %.03153, i64 8
  %64 = sext i32 %.val to i64
  %65 = getelementptr inbounds %union.ListCell, ptr %.val44, i64 %64
  %66 = icmp ult ptr %63, %65
  %..i = select i1 %66, ptr %63, ptr null
  br label %67

67:                                               ; preds = %53, %62
  %.1 = phi ptr [ %..i, %62 ], [ %.03153, %53 ]
  %indvars.iv.next = add nuw nsw i64 %indvars.iv, 1
  %exitcond.not = icmp eq i64 %indvars.iv.next, %wide.trip.count
  br i1 %exitcond.not, label %._crit_edge, label %53, !llvm.loop !22

._crit_edge:                                      ; preds = %67, %list_head.exit
  %.031.lcssa = phi ptr [ %49, %list_head.exit ], [ %.1, %67 ]
  %68 = icmp eq ptr %.031.lcssa, null
  br i1 %68, label %69, label %72

69:                                               ; preds = %._crit_edge
  %70 = tail call zeroext i1 @errstart_cold(i32 noundef 21, ptr noundef null) #9
  tail call void @llvm.assume(i1 %70)
  %71 = tail call i32 (ptr, ...) @errmsg_internal(ptr noundef nonnull @.str) #8
  tail call void @errfinish(ptr noundef nonnull @.str.1, i32 noundef 4475, ptr noundef nonnull @__func__.match_index_to_operand) #8
  unreachable

72:                                               ; preds = %._crit_edge
  %73 = load ptr, ptr %.031.lcssa, align 8
  %.not42 = icmp eq ptr %73, null
  br i1 %.not42, label %80, label %74

74:                                               ; preds = %72
  %75 = load i32, ptr %73, align 4
  %76 = icmp eq i32 %75, 27
  br i1 %76, label %77, label %80

77:                                               ; preds = %74
  %78 = getelementptr inbounds nuw i8, ptr %73, i64 8
  %79 = load ptr, ptr %78, align 8
  br label %80

80:                                               ; preds = %77, %74, %72
  %.0 = phi ptr [ %79, %77 ], [ %73, %74 ], [ null, %72 ]
  %81 = tail call zeroext i1 @equal(ptr noundef %.0, ptr noundef %.03548) #8
  br i1 %81, label %82, label %.thread49

.thread49:                                        ; preds = %.thread, %80, %21, %22, %25, %33, %38
  br label %82

82:                                               ; preds = %38, %80, %.thread49
  %.033 = phi i1 [ false, %.thread49 ], [ true, %80 ], [ true, %38 ]
  ret i1 %.033
}